target datalayout = "e-m:e-p270:32:32-p271:32:32-p272:64:64-i64:64-i128:128-f80:128-n8:16:32:64-S128"
target triple = "x86_64-pc-linux-gnu"

%struct.magic_set = type { [2 x ptr], %struct.cont, %struct.out, i32, i32, i32, i32, i32, ptr, i64, i32, i16, %struct.anon, %union.VALUETYPE, i16, i16, i16, i16, i16, i16, i16, i64, i64, i64 }
%struct.cont = type { i64, ptr }
%struct.out = type { ptr, i64, ptr }
%struct.anon = type { ptr, i64, i64, i64 }
%union.VALUETYPE = type { [2 x i64], [112 x i8] }
%struct.magic = type { i16, i8, i8, i8, i8, i8, i8, i8, i8, i8, i8, i32, i32, i32, %union.anon, %union.VALUETYPE, [64 x i8], [80 x i8], [8 x i8], [120 x i8] }
%union.anon = type { i64 }
%struct.level_info = type { i32, i32, i32, i32 }

; Function Attrs: nounwind uwtable
define internal i32 @getlength(ptr noundef %0, ptr noundef %1, i64 noundef %2) #0 {
  %4 = alloca i32, align 4
  %5 = alloca ptr, align 8
  %6 = alloca ptr, align 8
  %7 = alloca i64, align 8
  %8 = alloca i8, align 1
  %9 = alloca i8, align 1
  %10 = alloca i64, align 8
  %11 = alloca i32, align 4
  %12 = alloca i32, align 4
  store ptr %0, ptr %5, align 8, !tbaa !22
  store ptr %1, ptr %6, align 8, !tbaa !32
  store i64 %2, ptr %7, align 8, !tbaa !11
  call void @llvm.lifetime.start.p0(i64 1, ptr %8) #6
  call void @llvm.lifetime.start.p0(i64 1, ptr %9) #6
  call void @llvm.lifetime.start.p0(i64 8, ptr %10) #6
  call void @llvm.lifetime.start.p0(i64 4, ptr %11) #6
  %13 = load ptr, ptr %6, align 8, !tbaa !32
  %14 = load i64, ptr %13, align 8, !tbaa !11
  %15 = load i64, ptr %7, align 8, !tbaa !11
  %16 = icmp uge i64 %14, %15
  br i1 %16, label %17, label %18

17:                                               ; preds = %3
  store i32 -1, ptr %4, align 4
  store i32 1, ptr %12, align 4
  br label %89

18:                                               ; preds = %3
  %19 = load ptr, ptr %5, align 8, !tbaa !22
  %20 = load ptr, ptr %6, align 8, !tbaa !32
  %21 = load i64, ptr %20, align 8, !tbaa !11
  %22 = getelementptr inbounds nuw i8, ptr %19, i64 %21
  %23 = load i8, ptr %22, align 1, !tbaa !34
  %24 = zext i8 %23 to i32
  %25 = and i32 %24, 128
  %26 = icmp eq i32 %25, 0
  %27 = zext i1 %26 to i32
  store i32 %27, ptr %11, align 4, !tbaa !24
  %28 = load ptr, ptr %5, align 8, !tbaa !22
  %29 = load ptr, ptr %6, align 8, !tbaa !32
  %30 = load i64, ptr %29, align 8, !tbaa !11
  %31 = add i64 %30, 1
  store i64 %31, ptr %29, align 8, !tbaa !11
  %32 = getelementptr inbounds nuw i8, ptr %28, i64 %30
  %33 = load i8, ptr %32, align 1, !tbaa !34
  %34 = zext i8 %33 to i32
  %35 = and i32 %34, 127
  %36 = trunc i32 %35 to i8
  store i8 %36, ptr %8, align 1, !tbaa !34
  %37 = load ptr, ptr %6, align 8, !tbaa !32
  %38 = load i64, ptr %37, align 8, !tbaa !11
  %39 = load i8, ptr %8, align 1, !tbaa !34
  %40 = zext i8 %39 to i64
  %41 = add i64 %38, %40
  %42 = load i64, ptr %7, align 8, !tbaa !11
  %43 = icmp uge i64 %41, %42
  br i1 %43, label %44, label %45

44:                                               ; preds = %18
  store i32 -1, ptr %4, align 4
  store i32 1, ptr %12, align 4
  br label %89

45:                                               ; preds = %18
  %46 = load i32, ptr %11, align 4, !tbaa !24
  %47 = icmp ne i32 %46, 0
  br i1 %47, label %48, label %51

48:                                               ; preds = %45
  %49 = load i8, ptr %8, align 1, !tbaa !34
  %50 = zext i8 %49 to i32
  store i32 %50, ptr %4, align 4
  store i32 1, ptr %12, align 4
  br label %89

51:                                               ; preds = %45
  store i64 0, ptr %10, align 8, !tbaa !11
  store i8 0, ptr %9, align 1, !tbaa !34
  br label %52

52:                                               ; preds = %69, %51
  %53 = load i8, ptr %9, align 1, !tbaa !34
  %54 = zext i8 %53 to i32
  %55 = load i8, ptr %8, align 1, !tbaa !34
  %56 = zext i8 %55 to i32
  %57 = icmp slt i32 %54, %56
  br i1 %57, label %58, label %72

58:                                               ; preds = %52
  %59 = load i64, ptr %10, align 8, !tbaa !11
  %60 = shl i64 %59, 8
  %61 = load ptr, ptr %5, align 8, !tbaa !22
  %62 = load ptr, ptr %6, align 8, !tbaa !32
  %63 = load i64, ptr %62, align 8, !tbaa !11
  %64 = add i64 %63, 1
  store i64 %64, ptr %62, align 8, !tbaa !11
  %65 = getelementptr inbounds nuw i8, ptr %61, i64 %63
  %66 = load i8, ptr %65, align 1, !tbaa !34
  %67 = zext i8 %66 to i64
  %68 = or i64 %60, %67
  store i64 %68, ptr %10, align 8, !tbaa !11
  br label %69

69:                                               ; preds = %58
  %70 = load i8, ptr %9, align 1, !tbaa !34
  %71 = add i8 %70, 1
  store i8 %71, ptr %9, align 1, !tbaa !34
  br label %52

72:                                               ; preds = %52
  %73 = load i64, ptr %10, align 8, !tbaa !11
  %74 = load ptr, ptr %6, align 8, !tbaa !32
  %75 = load i64, ptr %74, align 8, !tbaa !11
  %76 = sub i64 4294967295, %75
  %77 = icmp ugt i64 %73, %76
  br i1 %77, label %85, label %78

78:                                               ; preds = %72
  %79 = load ptr, ptr %6, align 8, !tbaa !32
  %80 = load i64, ptr %79, align 8, !tbaa !11
  %81 = load i64, ptr %10, align 8, !tbaa !11
  %82 = add i64 %80, %81
  %83 = load i64, ptr %7, align 8, !tbaa !11
  %84 = icmp ugt i64 %82, %83
  br i1 %84, label %85, label %86

85:                                               ; preds = %78, %72
  store i32 -1, ptr %4, align 4
  store i32 1, ptr %12, align 4
  br label %89

86:                                               ; preds = %78
  %87 = load i64, ptr %10, align 8, !tbaa !11
  %88 = trunc i64 %87 to i32
  store i32 %88, ptr %4, align 4
  store i32 1, ptr %12, align 4
  br label %89

89:                                               ; preds = %86, %85, %48, %44, %17
  call void @llvm.lifetime.end.p0(i64 4, ptr %11) #6
  call void @llvm.lifetime.end.p0(i64 8, ptr %10) #6
  call void @llvm.lifetime.end.p0(i64 1, ptr %9) #6
  call void @llvm.lifetime.end.p0(i64 1, ptr %8) #6
  %90 = load i32, ptr %4, align 4
  ret i32 %90
}

; Function Attrs: nounwind uwtable
define internal i32 @gettag(ptr noundef %0, ptr noundef %1, i64 noundef %2) #0 {
  %4 = alloca i32, align 4
  %5 = alloca ptr, align 8
  %6 = alloca ptr, align 8
  %7 = alloca i64, align 8
  %8 = alloca i32, align 4
  %9 = alloca i32, align 4
  store ptr %0, ptr %5, align 8, !tbaa !22
  store ptr %1, ptr %6, align 8, !tbaa !32
  store i64 %2, ptr %7, align 8, !tbaa !11
  call void @llvm.lifetime.start.p0(i64 4, ptr %8) #6
  %10 = load ptr, ptr %6, align 8, !tbaa !32
  %11 = load i64, ptr %10, align 8, !tbaa !11
  %12 = load i64, ptr %7, align 8, !tbaa !11
  %13 = icmp uge i64 %11, %12
  br i1 %13, label %14, label %15

14:                                               ; preds = %3
  store i32 -1, ptr %4, align 4
  store i32 1, ptr %9, align 4
  br label %63

15:                                               ; preds = %3
  %16 = load ptr, ptr %5, align 8, !tbaa !22
  %17 = load ptr, ptr %6, align 8, !tbaa !32
  %18 = load i64, ptr %17, align 8, !tbaa !11
  %19 = add i64 %18, 1
  store i64 %19, ptr %17, align 8, !tbaa !11
  %20 = getelementptr inbounds nuw i8, ptr %16, i64 %18
  %21 = load i8, ptr %20, align 1, !tbaa !34
  %22 = zext i8 %21 to i32
  %23 = and i32 %22, 31
  store i32 %23, ptr %8, align 4, !tbaa !24
  %24 = load i32, ptr %8, align 4, !tbaa !24
  %25 = icmp ne i32 %24, 31
  br i1 %25, label %26, label %28

26:                                               ; preds = %15
  %27 = load i32, ptr %8, align 4, !tbaa !24
  store i32 %27, ptr %4, align 4
  store i32 1, ptr %9, align 4
  br label %63

28:                                               ; preds = %15
  %29 = load ptr, ptr %6, align 8, !tbaa !32
  %30 = load i64, ptr %29, align 8, !tbaa !11
  %31 = load i64, ptr %7, align 8, !tbaa !11
  %32 = icmp uge i64 %30, %31
  br i1 %32, label %33, label %34

33:                                               ; preds = %28
  store i32 -1, ptr %4, align 4
  store i32 1, ptr %9, align 4
  br label %63

34:                                               ; preds = %28
  br label %35

35:                                               ; preds = %60, %34
  %36 = load ptr, ptr %5, align 8, !tbaa !22
  %37 = load ptr, ptr %6, align 8, !tbaa !32
  %38 = load i64, ptr %37, align 8, !tbaa !11
  %39 = getelementptr inbounds nuw i8, ptr %36, i64 %38
  %40 = load i8, ptr %39, align 1, !tbaa !34
  %41 = zext i8 %40 to i32
  %42 = icmp sge i32 %41, 128
  br i1 %42, label %43, label %61

43:                                               ; preds = %35
  %44 = load i32, ptr %8, align 4, !tbaa !24
  %45 = mul i32 %44, 128
  %46 = load ptr, ptr %5, align 8, !tbaa !22
  %47 = load ptr, ptr %6, align 8, !tbaa !32
  %48 = load i64, ptr %47, align 8, !tbaa !11
  %49 = add i64 %48, 1
  store i64 %49, ptr %47, align 8, !tbaa !11
  %50 = getelementptr inbounds nuw i8, ptr %46, i64 %48
  %51 = load i8, ptr %50, align 1, !tbaa !34
  %52 = zext i8 %51 to i32
  %53 = add i32 %45, %52
  %54 = sub i32 %53, 128
  store i32 %54, ptr %8, align 4, !tbaa !24
  %55 = load ptr, ptr %6, align 8, !tbaa !32
  %56 = load i64, ptr %55, align 8, !tbaa !11
  %57 = load i64, ptr %7, align 8, !tbaa !11
  %58 = icmp uge i64 %56, %57
  br i1 %58, label %59, label %60

59:                                               ; preds = %43
  store i32 -1, ptr %4, align 4
  store i32 1, ptr %9, align 4
  br label %63

60:                                               ; preds = %43
  br label %35

61:                                               ; preds = %35
  %62 = load i32, ptr %8, align 4, !tbaa !24
  store i32 %62, ptr %4, align 4
  store i32 1, ptr %9, align 4
  br label %63

63:                                               ; preds = %61, %59, %33, %26, %14
  call void @llvm.lifetime.end.p0(i64 4, ptr %8) #6
  %64 = load i32, ptr %4, align 4
  ret i32 %64
}

; Function Attrs: nounwind uwtable
define hidden i32 @der_offs(ptr noundef %0, ptr noundef %1, i64 noundef %2) #0 {
  %4 = alloca i32, align 4
  %5 = alloca ptr, align 8
  %6 = alloca ptr, align 8
  %7 = alloca i64, align 8
  %8 = alloca ptr, align 8
  %9 = alloca i64, align 8
  %10 = alloca i64, align 8
  %11 = alloca i32, align 4
  %12 = alloca i32, align 4
  store ptr %0, ptr %5, align 8, !tbaa !4
  store ptr %1, ptr %6, align 8, !tbaa !9
  store i64 %2, ptr %7, align 8, !tbaa !11
  call void @llvm.lifetime.start.p0(i64 8, ptr %8) #6
  %13 = load ptr, ptr %5, align 8, !tbaa !4
  %14 = getelementptr inbounds nuw %struct.magic_set, ptr %13, i32 0, i32 12
  %15 = getelementptr inbounds nuw %struct.anon, ptr %14, i32 0, i32 0
  %16 = load ptr, ptr %15, align 8, !tbaa !13
  %17 = ptrtoint ptr %16 to i64
  %18 = inttoptr i64 %17 to ptr
  store ptr %18, ptr %8, align 8, !tbaa !22
  call void @llvm.lifetime.start.p0(i64 8, ptr %9) #6
  store i64 0, ptr %9, align 8, !tbaa !11
  call void @llvm.lifetime.start.p0(i64 8, ptr %10) #6
  %19 = load ptr, ptr %5, align 8, !tbaa !4
  %20 = getelementptr inbounds nuw %struct.magic_set, ptr %19, i32 0, i32 12
  %21 = getelementptr inbounds nuw %struct.anon, ptr %20, i32 0, i32 1
  %22 = load i64, ptr %21, align 8, !tbaa !23
  %23 = icmp ne i64 %22, 0
  br i1 %23, label %24, label %29

24:                                               ; preds = %3
  %25 = load ptr, ptr %5, align 8, !tbaa !4
  %26 = getelementptr inbounds nuw %struct.magic_set, ptr %25, i32 0, i32 12
  %27 = getelementptr inbounds nuw %struct.anon, ptr %26, i32 0, i32 1
  %28 = load i64, ptr %27, align 8, !tbaa !23
  br label %31

29:                                               ; preds = %3
  %30 = load i64, ptr %7, align 8, !tbaa !11
  br label %31

31:                                               ; preds = %29, %24
  %32 = phi i64 [ %28, %24 ], [ %30, %29 ]
  store i64 %32, ptr %10, align 8, !tbaa !11
  %33 = load ptr, ptr %8, align 8, !tbaa !22
  %34 = load i64, ptr %10, align 8, !tbaa !11
  %35 = call i32 @gettag(ptr noundef %33, ptr noundef %9, i64 noundef %34)
  %36 = icmp eq i32 %35, -1
  br i1 %36, label %37, label %38

37:                                               ; preds = %31
  store i32 -1, ptr %4, align 4
  store i32 1, ptr %11, align 4
  br label %91

38:                                               ; preds = %31
  call void @llvm.lifetime.start.p0(i64 4, ptr %12) #6
  %39 = load ptr, ptr %8, align 8, !tbaa !22
  %40 = load i64, ptr %10, align 8, !tbaa !11
  %41 = call i32 @getlength(ptr noundef %39, ptr noundef %9, i64 noundef %40)
  store i32 %41, ptr %12, align 4, !tbaa !24
  %42 = load i32, ptr %12, align 4, !tbaa !24
  %43 = icmp eq i32 %42, -1
  br i1 %43, label %44, label %45

44:                                               ; preds = %38
  store i32 -1, ptr %4, align 4
  store i32 1, ptr %11, align 4
  br label %90

45:                                               ; preds = %38
  %46 = load ptr, ptr %5, align 8, !tbaa !4
  %47 = getelementptr inbounds nuw %struct.magic_set, ptr %46, i32 0, i32 3
  %48 = load i32, ptr %47, align 8, !tbaa !25
  %49 = load ptr, ptr %6, align 8, !tbaa !9
  %50 = getelementptr inbounds nuw %struct.magic, ptr %49, i32 0, i32 11
  %51 = load i32, ptr %50, align 4, !tbaa !26
  %52 = add i32 %48, %51
  %53 = zext i32 %52 to i64
  %54 = load i64, ptr %9, align 8, !tbaa !11
  %55 = add i64 %54, %53
  store i64 %55, ptr %9, align 8, !tbaa !11
  %56 = load ptr, ptr %6, align 8, !tbaa !9
  %57 = getelementptr inbounds nuw %struct.magic, ptr %56, i32 0, i32 0
  %58 = load i16, ptr %57, align 8, !tbaa !28
  %59 = zext i16 %58 to i32
  %60 = icmp ne i32 %59, 0
  br i1 %60, label %61, label %87

61:                                               ; preds = %45
  %62 = load i64, ptr %9, align 8, !tbaa !11
  %63 = load i32, ptr %12, align 4, !tbaa !24
  %64 = zext i32 %63 to i64
  %65 = add i64 %62, %64
  %66 = load i64, ptr %7, align 8, !tbaa !11
  %67 = icmp ugt i64 %65, %66
  br i1 %67, label %68, label %69

68:                                               ; preds = %61
  store i32 -1, ptr %4, align 4
  store i32 1, ptr %11, align 4
  br label %90

69:                                               ; preds = %61
  %70 = load i64, ptr %9, align 8, !tbaa !11
  %71 = load i32, ptr %12, align 4, !tbaa !24
  %72 = zext i32 %71 to i64
  %73 = add i64 %70, %72
  %74 = trunc i64 %73 to i32
  %75 = load ptr, ptr %5, align 8, !tbaa !4
  %76 = getelementptr inbounds nuw %struct.magic_set, ptr %75, i32 0, i32 1
  %77 = getelementptr inbounds nuw %struct.cont, ptr %76, i32 0, i32 1
  %78 = load ptr, ptr %77, align 8, !tbaa !29
  %79 = load ptr, ptr %6, align 8, !tbaa !9
  %80 = getelementptr inbounds nuw %struct.magic, ptr %79, i32 0, i32 0
  %81 = load i16, ptr %80, align 8, !tbaa !28
  %82 = zext i16 %81 to i32
  %83 = sub nsw i32 %82, 1
  %84 = sext i32 %83 to i64
  %85 = getelementptr inbounds %struct.level_info, ptr %78, i64 %84
  %86 = getelementptr inbounds nuw %struct.level_info, ptr %85, i32 0, i32 0
  store i32 %74, ptr %86, align 4, !tbaa !30
  br label %87

87:                                               ; preds = %69, %45
  %88 = load i64, ptr %9, align 8, !tbaa !11
  %89 = trunc i64 %88 to i32
  store i32 %89, ptr %4, align 4
  store i32 1, ptr %11, align 4
  br label %90

90:                                               ; preds = %87, %68, %44
  call void @llvm.lifetime.end.p0(i64 4, ptr %12) #6
  br label %91

91:                                               ; preds = %90, %37
  call void @llvm.lifetime.end.p0(i64 8, ptr %10) #6
  call void @llvm.lifetime.end.p0(i64 8, ptr %9) #6
  call void @llvm.lifetime.end.p0(i64 8, ptr %8) #6
  %92 = load i32, ptr %4, align 4
  ret i32 %92
}