; Function Attrs: nofree norecurse nosync nounwind memory(readwrite, inaccessiblemem: none) uwtable
define hidden i32 @der_offs(ptr noundef readonly captures(none) %0, ptr noundef readonly captures(none) %1, i64 noundef %2) local_unnamed_addr #0 {
  %4 = getelementptr inbounds nuw i8, ptr %0, i64 104
  %5 = load ptr, ptr %4, align 8, !tbaa !4
  %6 = getelementptr inbounds nuw i8, ptr %0, i64 112
  %7 = load i64, ptr %6, align 8, !tbaa !17
  %.not = icmp eq i64 %7, 0
  %. = select i1 %.not, i64 %2, i64 %7
  %.not.i.not = icmp eq i64 %., 0
  br i1 %.not.i.not, label %gettag.exit.thread, label %8

8:                                                ; preds = %3
  %9 = load i8, ptr %5, align 1, !tbaa !18
  %10 = and i8 %9, 31
  %.not20.i = icmp eq i8 %10, 31
  br i1 %.not20.i, label %11, label %gettag.exit.thread31

11:                                               ; preds = %8
  %.not21.i.not = icmp eq i64 %., 1
  br i1 %.not21.i.not, label %gettag.exit.thread, label %.preheader.i

.preheader.i:                                     ; preds = %11, %15
  %.028 = phi i64 [ %17, %15 ], [ 1, %11 ]
  %.0.i = phi i32 [ %20, %15 ], [ 31, %11 ]
  %12 = getelementptr inbounds nuw i8, ptr %5, i64 %.028
  %13 = load i8, ptr %12, align 1, !tbaa !18
  %14 = icmp slt i8 %13, 0
  br i1 %14, label %15, label %gettag.exit

15:                                               ; preds = %.preheader.i
  %16 = shl i32 %.0.i, 7
  %17 = add nuw i64 %.028, 1
  %18 = zext i8 %13 to i32
  %19 = add i32 %16, -128
  %20 = add i32 %19, %18
  %exitcond.not = icmp eq i64 %17, %.
  br i1 %exitcond.not, label %gettag.exit.thread, label %.preheader.i

gettag.exit:                                      ; preds = %.preheader.i
  %21 = icmp eq i32 %.0.i, -1
  br i1 %21, label %gettag.exit.thread, label %gettag.exit.thread31

gettag.exit.thread31:                             ; preds = %8, %gettag.exit
  %.134 = phi i64 [ %.028, %gettag.exit ], [ 1, %8 ]
  %.not.i22 = icmp ult i64 %.134, %.
  br i1 %.not.i22, label %22, label %gettag.exit.thread

22:                                               ; preds = %gettag.exit.thread31
  %23 = getelementptr inbounds nuw i8, ptr %5, i64 %.134
  %24 = load i8, ptr %23, align 1, !tbaa !18
  %25 = add nuw i64 %.134, 1
  %26 = and i8 %24, 127
  %27 = zext nneg i8 %26 to i64
  %28 = add i64 %25, %27
  %.not27.i = icmp ult i64 %28, %.
  br i1 %.not27.i, label %29, label %gettag.exit.thread

29:                                               ; preds = %22
  %30 = icmp sgt i8 %24, -1
  br i1 %30, label %getlength.exit.thread37, label %.preheader.i24

.preheader.i24:                                   ; preds = %29
  %.not31.i = icmp eq i8 %26, 0
  br i1 %.not31.i, label %._crit_edge.i, label %.lr.ph.i.preheader

.lr.ph.i.preheader:                               ; preds = %.preheader.i24
  %31 = add nsw i8 %26, -1
  %32 = zext nneg i8 %31 to i64
  %33 = add i64 %.134, %32
  br label %.lr.ph.i

.lr.ph.i:                                         ; preds = %.lr.ph.i.preheader, %.lr.ph.i
  %34 = phi i64 [ %36, %.lr.ph.i ], [ %25, %.lr.ph.i.preheader ]
  %.02330.i = phi i64 [ %40, %.lr.ph.i ], [ 0, %.lr.ph.i.preheader ]
  %.02429.i = phi i8 [ %41, %.lr.ph.i ], [ 0, %.lr.ph.i.preheader ]
  %35 = shl i64 %.02330.i, 8
  %36 = add i64 %34, 1
  %37 = getelementptr inbounds nuw i8, ptr %5, i64 %34
  %38 = load i8, ptr %37, align 1, !tbaa !18
  %39 = zext i8 %38 to i64
  %40 = or disjoint i64 %35, %39
  %41 = add nuw nsw i8 %.02429.i, 1
  %exitcond.not.i = icmp eq i8 %41, %26
  br i1 %exitcond.not.i, label %._crit_edge.i.loopexit, label %.lr.ph.i

._crit_edge.i.loopexit:                           ; preds = %.lr.ph.i
  %42 = add i64 %33, 2
  br label %._crit_edge.i

._crit_edge.i:                                    ; preds = %._crit_edge.i.loopexit, %.preheader.i24
  %.2 = phi i64 [ %25, %.preheader.i24 ], [ %42, %._crit_edge.i.loopexit ]
  %.023.lcssa.i = phi i64 [ 0, %.preheader.i24 ], [ %40, %._crit_edge.i.loopexit ]
  %43 = sub i64 4294967295, %.2
  %44 = icmp ugt i64 %.023.lcssa.i, %43
  %45 = add i64 %.023.lcssa.i, %.2
  %46 = icmp ugt i64 %45, %.
  %or.cond.i = or i1 %44, %46
  %47 = and i64 %.023.lcssa.i, 4294967295
  %48 = icmp eq i64 %47, 4294967295
  %or.cond = or i1 %48, %or.cond.i
  br i1 %or.cond, label %gettag.exit.thread, label %getlength.exit.thread37

getlength.exit.thread37:                          ; preds = %29, %._crit_edge.i
  %.0.i2341 = phi i64 [ %.023.lcssa.i, %._crit_edge.i ], [ %27, %29 ]
  %.340 = phi i64 [ %.2, %._crit_edge.i ], [ %25, %29 ]
  %49 = getelementptr inbounds nuw i8, ptr %0, i64 56
  %50 = load i32, ptr %49, align 8, !tbaa !19
  %51 = getelementptr inbounds nuw i8, ptr %1, i64 12
  %52 = load i32, ptr %51, align 4, !tbaa !20
  %53 = add i32 %52, %50
  %54 = zext i32 %53 to i64
  %55 = add i64 %.340, %54
  %56 = load i16, ptr %1, align 8, !tbaa !22
  %57 = zext i16 %56 to i64
  %.not21 = icmp eq i16 %56, 0
  br i1 %.not21, label %69, label %58

58:                                               ; preds = %getlength.exit.thread37
  %59 = and i64 %.0.i2341, 4294967295
  %60 = add i64 %55, %59
  %61 = icmp ugt i64 %60, %2
  br i1 %61, label %gettag.exit.thread, label %62

62:                                               ; preds = %58
  %63 = trunc i64 %60 to i32
  %64 = getelementptr inbounds nuw i8, ptr %0, i64 24
  %65 = load ptr, ptr %64, align 8, !tbaa !23
  %66 = add nuw nsw i64 %57, 4294967295
  %67 = and i64 %66, 4294967295
  %68 = getelementptr inbounds nuw %struct.level_info, ptr %65, i64 %67
  store i32 %63, ptr %68, align 4, !tbaa !24
  br label %69

69:                                               ; preds = %62, %getlength.exit.thread37
  %70 = trunc i64 %55 to i32
  br label %gettag.exit.thread

gettag.exit.thread:                               ; preds = %15, %._crit_edge.i, %22, %gettag.exit.thread31, %11, %3, %69, %58, %gettag.exit
  %.0 = phi i32 [ -1, %gettag.exit ], [ %70, %69 ], [ -1, %58 ], [ -1, %3 ], [ -1, %11 ], [ -1, %gettag.exit.thread31 ], [ -1, %22 ], [ -1, %._crit_edge.i ], [ -1, %15 ]
  ret i32 %.0
}